target datalayout = "e-m:e-p270:32:32-p271:32:32-p272:64:64-i64:64-i128:128-f80:128-n8:16:32:64-S128"
target triple = "x86_64-pc-linux-gnu"

%"class.cv::GOCLContext" = type { %"class.std::vector", %"class.std::unordered_map" }
%"class.std::vector" = type { %"struct.std::_Vector_base" }
%"struct.std::_Vector_base" = type { %"struct.std::_Vector_base<cv::GArg, std::allocator<cv::GArg>>::_Vector_impl" }
%"struct.std::_Vector_base<cv::GArg, std::allocator<cv::GArg>>::_Vector_impl" = type { %"struct.std::_Vector_base<cv::GArg, std::allocator<cv::GArg>>::_Vector_impl_data" }
%"struct.std::_Vector_base<cv::GArg, std::allocator<cv::GArg>>::_Vector_impl_data" = type { ptr, ptr, ptr }
%"class.std::unordered_map" = type { %"class.std::_Hashtable" }
%"class.std::_Hashtable" = type { ptr, i64, %"struct.std::__detail::_Hash_node_base", i64, %"struct.std::__detail::_Prime_rehash_policy", ptr }
%"struct.std::__detail::_Hash_node_base" = type { ptr }
%"struct.std::__detail::_Prime_rehash_policy" = type { float, i64 }
%"class.std::exception" = type { ptr }
%"class.cv::GArg" = type { i32, i32, %"class.cv::util::any" }
%"class.cv::util::any" = type { %"class.std::unique_ptr" }
%"class.std::unique_ptr" = type { %"struct.std::__uniq_ptr_data" }
%"struct.std::__uniq_ptr_data" = type { %"class.std::__uniq_ptr_impl" }
%"class.std::__uniq_ptr_impl" = type { %"class.std::tuple" }
%"class.std::tuple" = type { %"struct.std::_Tuple_impl" }
%"struct.std::_Tuple_impl" = type { %"struct.std::_Head_base.12" }
%"struct.std::_Head_base.12" = type { ptr }
%"class.cv::util::bad_any_cast" = type { %"class.std::bad_cast" }
%"class.std::bad_cast" = type { %"class.std::exception" }
%"struct.cv::util::any::holder" = type { ptr }
%"struct.cv::util::any::holder_impl.14" = type { %"struct.cv::util::any::holder", %"class.cv::Scalar_" }
%"class.cv::Scalar_" = type { %"class.cv::Vec" }
%"class.cv::Vec" = type { %"class.cv::Matx" }
%"class.cv::Matx" = type { [4 x double] }

@.str.3 = private unnamed_addr constant [74 x i8] c"vector::_M_range_check: __n (which is %zu) >= this->size() (which is %zu)\00", align 1
@_ZTIN2cv4util3any6holderE = linkonce_odr hidden constant { ptr, ptr } { ptr getelementptr inbounds (ptr, ptr @_ZTVN10__cxxabiv117__class_type_infoE, i64 2), ptr @_ZTSN2cv4util3any6holderE }, comdat, align 8
@_ZTVN2cv4util12bad_any_castE = linkonce_odr hidden unnamed_addr constant { [5 x ptr] } { [5 x ptr] [ptr null, ptr @_ZTIN2cv4util12bad_any_castE, ptr @_ZNSt8bad_castD2Ev, ptr @_ZN2cv4util12bad_any_castD0Ev, ptr @_ZNK2cv4util12bad_any_cast4whatEv] }, comdat, align 8
@_ZTVSt8bad_cast = available_externally unnamed_addr constant { [5 x ptr] } { [5 x ptr] [ptr null, ptr @_ZTISt8bad_cast, ptr @_ZNSt8bad_castD1Ev, ptr @_ZNSt8bad_castD0Ev, ptr @_ZNKSt8bad_cast4whatEv] }, align 8
@_ZTVSt9exception = available_externally unnamed_addr constant { [5 x ptr] } { [5 x ptr] [ptr null, ptr @_ZTISt9exception, ptr @_ZNSt9exceptionD1Ev, ptr @_ZNSt9exceptionD0Ev, ptr @_ZNKSt9exception4whatEv] }, align 8
@_ZTIN2cv4util3any11holder_implINS_7Scalar_IdEEEE = linkonce_odr hidden constant { ptr, ptr, ptr } { ptr getelementptr inbounds (ptr, ptr @_ZTVN10__cxxabiv120__si_class_type_infoE, i64 2), ptr @_ZTSN2cv4util3any11holder_implINS_7Scalar_IdEEEE, ptr @_ZTIN2cv4util3any6holderE }, comdat, align 8

; Function Attrs: mustprogress nounwind uwtable
define linkonce_odr hidden noundef nonnull align 8 dereferenceable(8) ptr @_ZNSt10_Head_baseILm0EPN2cv4util3any6holderELb0EE7_M_headERKS5_(ptr noundef nonnull align 8 dereferenceable(8) %0) #6 comdat align 2 {
  %2 = alloca ptr, align 8
  store ptr %0, ptr %2, align 8, !tbaa !86
  %3 = load ptr, ptr %2, align 8, !tbaa !86
  %4 = getelementptr inbounds nuw %"struct.std::_Head_base.12", ptr %3, i32 0, i32 0
  ret ptr %4
}

; Function Attrs: mustprogress nounwind uwtable
define linkonce_odr hidden noundef nonnull align 8 dereferenceable(8) ptr @_ZNSt11_Tuple_implILm0EJPN2cv4util3any6holderESt14default_deleteIS3_EEE7_M_headERKS7_(ptr noundef nonnull align 8 dereferenceable(8) %0) #6 comdat align 2 {
  %2 = alloca ptr, align 8
  store ptr %0, ptr %2, align 8, !tbaa !84
  %3 = load ptr, ptr %2, align 8, !tbaa !84
  %4 = call noundef nonnull align 8 dereferenceable(8) ptr @_ZNSt10_Head_baseILm0EPN2cv4util3any6holderELb0EE7_M_headERKS5_(ptr noundef nonnull align 8 dereferenceable(8) %3) #3
  ret ptr %4
}

; Function Attrs: mustprogress nounwind uwtable
define linkonce_odr hidden noundef nonnull align 8 dereferenceable(8) ptr @_ZSt12__get_helperILm0EPN2cv4util3any6holderEJSt14default_deleteIS3_EEERKT0_RKSt11_Tuple_implIXT_EJS7_DpT1_EE(ptr noundef nonnull align 8 dereferenceable(8) %0) #6 comdat {
  %2 = alloca ptr, align 8
  store ptr %0, ptr %2, align 8, !tbaa !84
  %3 = load ptr, ptr %2, align 8, !tbaa !84
  %4 = call noundef nonnull align 8 dereferenceable(8) ptr @_ZNSt11_Tuple_implILm0EJPN2cv4util3any6holderESt14default_deleteIS3_EEE7_M_headERKS7_(ptr noundef nonnull align 8 dereferenceable(8) %3) #3
  ret ptr %4
}

; Function Attrs: mustprogress nounwind uwtable
define linkonce_odr hidden noundef nonnull align 8 dereferenceable(8) ptr @_ZSt3getILm0EJPN2cv4util3any6holderESt14default_deleteIS3_EEERKNSt13tuple_elementIXT_ESt5tupleIJDpT0_EEE4typeERKSB_(ptr noundef nonnull align 8 dereferenceable(8) %0) #6 comdat {
  %2 = alloca ptr, align 8
  store ptr %0, ptr %2, align 8, !tbaa !82
  %3 = load ptr, ptr %2, align 8, !tbaa !82
  %4 = call noundef nonnull align 8 dereferenceable(8) ptr @_ZSt12__get_helperILm0EPN2cv4util3any6holderEJSt14default_deleteIS3_EEERKT0_RKSt11_Tuple_implIXT_EJS7_DpT1_EE(ptr noundef nonnull align 8 dereferenceable(8) %3) #3
  ret ptr %4
}

; Function Attrs: mustprogress nounwind uwtable
define linkonce_odr hidden void @_ZNSt9exceptionC2Ev(ptr noundef nonnull align 8 dereferenceable(8) %0) unnamed_addr #6 comdat align 2 {
  %2 = alloca ptr, align 8
  store ptr %0, ptr %2, align 8, !tbaa !90
  %3 = load ptr, ptr %2, align 8
  store ptr getelementptr inbounds inrange(-16, 24) ({ [5 x ptr] }, ptr @_ZTVSt9exception, i32 0, i32 0, i32 2), ptr %3, align 8, !tbaa !74
  ret void
}

; Function Attrs: mustprogress nounwind uwtable
define linkonce_odr hidden noundef ptr @_ZNKSt15__uniq_ptr_implIN2cv4util3any6holderESt14default_deleteIS3_EE6_M_ptrEv(ptr noundef nonnull align 8 dereferenceable(8) %0) #6 comdat align 2 {
  %2 = alloca ptr, align 8
  store ptr %0, ptr %2, align 8, !tbaa !80
  %3 = load ptr, ptr %2, align 8
  %4 = getelementptr inbounds nuw %"class.std::__uniq_ptr_impl", ptr %3, i32 0, i32 0
  %5 = call noundef nonnull align 8 dereferenceable(8) ptr @_ZSt3getILm0EJPN2cv4util3any6holderESt14default_deleteIS3_EEERKNSt13tuple_elementIXT_ESt5tupleIJDpT0_EEE4typeERKSB_(ptr noundef nonnull align 8 dereferenceable(8) %4) #3
  %6 = load ptr, ptr %5, align 8, !tbaa !76
  ret ptr %6
}

; Function Attrs: mustprogress nounwind uwtable
define linkonce_odr hidden void @_ZNSt8bad_castC2Ev(ptr noundef nonnull align 8 dereferenceable(8) %0) unnamed_addr #6 comdat align 2 {
  %2 = alloca ptr, align 8
  store ptr %0, ptr %2, align 8, !tbaa !88
  %3 = load ptr, ptr %2, align 8
  call void @_ZNSt9exceptionC2Ev(ptr noundef nonnull align 8 dereferenceable(8) %3) #3
  store ptr getelementptr inbounds inrange(-16, 24) ({ [5 x ptr] }, ptr @_ZTVSt8bad_cast, i32 0, i32 0, i32 2), ptr %3, align 8, !tbaa !74
  ret void
}

; Function Attrs: mustprogress nounwind uwtable
define linkonce_odr hidden noundef ptr @_ZN2cv8internal9down_castIPNS_4util3any11holder_implINS_7Scalar_IdEEEEPNS3_6holderEEET_T0_(ptr noundef %0) #6 comdat {
  %2 = alloca ptr, align 8
  store ptr %0, ptr %2, align 8, !tbaa !76
  %3 = load ptr, ptr %2, align 8, !tbaa !76
  %4 = icmp eq ptr %3, null
  br i1 %4, label %7, label %5

5:                                                ; preds = %1
  %6 = call ptr @__dynamic_cast(ptr %3, ptr @_ZTIN2cv4util3any6holderE, ptr @_ZTIN2cv4util3any11holder_implINS_7Scalar_IdEEEE, i64 0) #3
  br label %8

7:                                                ; preds = %1
  br label %8

8:                                                ; preds = %7, %5
  %9 = phi ptr [ %6, %5 ], [ null, %7 ]
  ret ptr %9
}

; Function Attrs: mustprogress nounwind uwtable
define linkonce_odr hidden noundef ptr @_ZNKSt10unique_ptrIN2cv4util3any6holderESt14default_deleteIS3_EE3getEv(ptr noundef nonnull align 8 dereferenceable(8) %0) #6 comdat align 2 {
  %2 = alloca ptr, align 8
  store ptr %0, ptr %2, align 8, !tbaa !78
  %3 = load ptr, ptr %2, align 8
  %4 = getelementptr inbounds nuw %"class.std::unique_ptr", ptr %3, i32 0, i32 0
  %5 = call noundef ptr @_ZNKSt15__uniq_ptr_implIN2cv4util3any6holderESt14default_deleteIS3_EE6_M_ptrEv(ptr noundef nonnull align 8 dereferenceable(8) %4) #3
  ret ptr %5
}

; Function Attrs: inlinehint mustprogress nounwind uwtable
define linkonce_odr hidden void @_ZN2cv4util12bad_any_castC2Ev(ptr noundef nonnull align 8 dereferenceable(8) %0) unnamed_addr #12 comdat align 2 {
  %2 = alloca ptr, align 8
  store ptr %0, ptr %2, align 8, !tbaa !72
  %3 = load ptr, ptr %2, align 8
  call void @_ZNSt8bad_castC2Ev(ptr noundef nonnull align 8 dereferenceable(8) %3) #3
  store ptr getelementptr inbounds inrange(-16, 24) ({ [5 x ptr] }, ptr @_ZTVN2cv4util12bad_any_castE, i32 0, i32 0, i32 2), ptr %3, align 8, !tbaa !74
  ret void
}

; Function Attrs: mustprogress uwtable
define linkonce_odr hidden noundef ptr @_ZN2cv4util8any_castINS_7Scalar_IdEEEEPT_PNS0_3anyE(ptr noundef %0) #4 comdat {
  %2 = alloca ptr, align 8
  %3 = alloca ptr, align 8
  %4 = alloca ptr, align 8
  %5 = alloca i32, align 4
  store ptr %0, ptr %3, align 8, !tbaa !68
  call void @llvm.lifetime.start.p0(i64 8, ptr %4) #3
  %6 = load ptr, ptr %3, align 8, !tbaa !68
  %7 = getelementptr inbounds nuw %"class.cv::util::any", ptr %6, i32 0, i32 0
  %8 = call noundef ptr @_ZNKSt10unique_ptrIN2cv4util3any6holderESt14default_deleteIS3_EE3getEv(ptr noundef nonnull align 8 dereferenceable(8) %7) #3
  %9 = call noundef ptr @_ZN2cv8internal9down_castIPNS_4util3any11holder_implINS_7Scalar_IdEEEEPNS3_6holderEEET_T0_(ptr noundef %8)
  store ptr %9, ptr %4, align 8, !tbaa !149
  %10 = load ptr, ptr %4, align 8, !tbaa !149
  %11 = icmp ne ptr %10, null
  br i1 %11, label %12, label %15

12:                                               ; preds = %1
  %13 = load ptr, ptr %4, align 8, !tbaa !149
  %14 = getelementptr inbounds nuw %"struct.cv::util::any::holder_impl.14", ptr %13, i32 0, i32 1
  store ptr %14, ptr %2, align 8
  store i32 1, ptr %5, align 4
  br label %16

15:                                               ; preds = %1
  store ptr null, ptr %2, align 8
  store i32 1, ptr %5, align 4
  br label %16

16:                                               ; preds = %15, %12
  call void @llvm.lifetime.end.p0(i64 8, ptr %4) #3
  %17 = load ptr, ptr %2, align 8
  ret ptr %17
}

; Function Attrs: mustprogress nounwind uwtable
define linkonce_odr hidden noundef i64 @_ZNKSt6vectorIN2cv4GArgESaIS1_EE4sizeEv(ptr noundef nonnull align 8 dereferenceable(24) %0) #6 comdat align 2 {
  %2 = alloca ptr, align 8
  store ptr %0, ptr %2, align 8, !tbaa !61
  %3 = load ptr, ptr %2, align 8
  %4 = getelementptr inbounds nuw %"struct.std::_Vector_base", ptr %3, i32 0, i32 0
  %5 = getelementptr inbounds nuw %"struct.std::_Vector_base<cv::GArg, std::allocator<cv::GArg>>::_Vector_impl_data", ptr %4, i32 0, i32 1
  %6 = load ptr, ptr %5, align 8, !tbaa !67
  %7 = getelementptr inbounds nuw %"struct.std::_Vector_base", ptr %3, i32 0, i32 0
  %8 = getelementptr inbounds nuw %"struct.std::_Vector_base<cv::GArg, std::allocator<cv::GArg>>::_Vector_impl_data", ptr %7, i32 0, i32 0
  %9 = load ptr, ptr %8, align 8, !tbaa !65
  %10 = ptrtoint ptr %6 to i64
  %11 = ptrtoint ptr %9 to i64
  %12 = sub i64 %10, %11
  %13 = sdiv exact i64 %12, 16
  ret i64 %13
}

; Function Attrs: mustprogress uwtable
define linkonce_odr hidden noundef nonnull align 8 dereferenceable(32) ptr @_ZN2cv4util8any_castINS_7Scalar_IdEEEERT_RNS0_3anyE(ptr noundef nonnull align 8 dereferenceable(8) %0) #4 comdat personality ptr @__gxx_personality_v0 {
  %2 = alloca ptr, align 8
  %3 = alloca ptr, align 8
  %4 = alloca %"class.cv::util::bad_any_cast", align 8
  %5 = alloca ptr, align 8
  %6 = alloca i32, align 4
  store ptr %0, ptr %2, align 8, !tbaa !68
  call void @llvm.lifetime.start.p0(i64 8, ptr %3) #3
  %7 = load ptr, ptr %2, align 8, !tbaa !68
  %8 = call noundef ptr @_ZN2cv4util8any_castINS_7Scalar_IdEEEEPT_PNS0_3anyE(ptr noundef %7)
  store ptr %8, ptr %3, align 8, !tbaa !23
  %9 = load ptr, ptr %3, align 8, !tbaa !23
  %10 = icmp ne ptr %9, null
  br i1 %10, label %11, label %13

11:                                               ; preds = %1
  %12 = load ptr, ptr %3, align 8, !tbaa !23
  call void @llvm.lifetime.end.p0(i64 8, ptr %3) #3
  ret ptr %12

13:                                               ; preds = %1
  call void @llvm.lifetime.start.p0(i64 8, ptr %4) #3
  call void @llvm.memset.p0.i64(ptr align 8 %4, i8 0, i64 8, i1 false)
  call void @_ZN2cv4util12bad_any_castC2Ev(ptr noundef nonnull align 8 dereferenceable(8) %4) #3
  invoke void @_ZN2cv4util11throw_errorINS0_12bad_any_castEEEvOT_(ptr noundef nonnull align 8 dereferenceable(8) %4) #17
          to label %14 unwind label %15

14:                                               ; preds = %13
  unreachable

15:                                               ; preds = %13
  %16 = landingpad { ptr, i32 }
          cleanup
  %17 = extractvalue { ptr, i32 } %16, 0
  store ptr %17, ptr %5, align 8
  %18 = extractvalue { ptr, i32 } %16, 1
  store i32 %18, ptr %6, align 4
  call void @_ZNSt8bad_castD2Ev(ptr noundef nonnull align 8 dereferenceable(8) %4) #3
  call void @llvm.lifetime.end.p0(i64 8, ptr %4) #3
  call void @llvm.lifetime.end.p0(i64 8, ptr %3) #3
  br label %19

19:                                               ; preds = %15
  %20 = load ptr, ptr %5, align 8
  %21 = load i32, ptr %6, align 4
  %22 = insertvalue { ptr, i32 } poison, ptr %20, 0
  %23 = insertvalue { ptr, i32 } %22, i32 %21, 1
  resume { ptr, i32 } %23
}

; Function Attrs: mustprogress nounwind uwtable
define linkonce_odr hidden noundef nonnull align 8 dereferenceable(16) ptr @_ZNSt6vectorIN2cv4GArgESaIS1_EEixEm(ptr noundef nonnull align 8 dereferenceable(24) %0, i64 noundef %1) #6 comdat align 2 {
  %3 = alloca ptr, align 8
  %4 = alloca i64, align 8
  store ptr %0, ptr %3, align 8, !tbaa !61
  store i64 %1, ptr %4, align 8, !tbaa !10
  %5 = load ptr, ptr %3, align 8
  %6 = getelementptr inbounds nuw %"struct.std::_Vector_base", ptr %5, i32 0, i32 0
  %7 = getelementptr inbounds nuw %"struct.std::_Vector_base<cv::GArg, std::allocator<cv::GArg>>::_Vector_impl_data", ptr %6, i32 0, i32 0
  %8 = load ptr, ptr %7, align 8, !tbaa !65
  %9 = load i64, ptr %4, align 8, !tbaa !10
  %10 = getelementptr inbounds nuw %"class.cv::GArg", ptr %8, i64 %9
  ret ptr %10
}

; Function Attrs: mustprogress uwtable
define linkonce_odr hidden void @_ZNKSt6vectorIN2cv4GArgESaIS1_EE14_M_range_checkEm(ptr noundef nonnull align 8 dereferenceable(24) %0, i64 noundef %1) #4 comdat align 2 {
  %3 = alloca ptr, align 8
  %4 = alloca i64, align 8
  store ptr %0, ptr %3, align 8, !tbaa !61
  store i64 %1, ptr %4, align 8, !tbaa !10
  %5 = load ptr, ptr %3, align 8
  %6 = load i64, ptr %4, align 8, !tbaa !10
  %7 = call noundef i64 @_ZNKSt6vectorIN2cv4GArgESaIS1_EE4sizeEv(ptr noundef nonnull align 8 dereferenceable(24) %5) #3
  %8 = icmp uge i64 %6, %7
  br i1 %8, label %9, label %12

9:                                                ; preds = %2
  %10 = load i64, ptr %4, align 8, !tbaa !10
  %11 = call noundef i64 @_ZNKSt6vectorIN2cv4GArgESaIS1_EE4sizeEv(ptr noundef nonnull align 8 dereferenceable(24) %5) #3
  call void (ptr, ...) @_ZSt24__throw_out_of_range_fmtPKcz(ptr noundef @.str.3, i64 noundef %10, i64 noundef %11) #17
  unreachable

12:                                               ; preds = %2
  ret void
}

; Function Attrs: inlinehint mustprogress uwtable
define linkonce_odr hidden noundef nonnull align 8 dereferenceable(32) ptr @_ZN2cv4GArg3getINS_7Scalar_IdEEEERT_v(ptr noundef nonnull align 8 dereferenceable(16) %0) #10 comdat align 2 {
  %2 = alloca ptr, align 8
  store ptr %0, ptr %2, align 8, !tbaa !63
  %3 = load ptr, ptr %2, align 8
  %4 = getelementptr inbounds nuw %"class.cv::GArg", ptr %3, i32 0, i32 2
  %5 = call noundef nonnull align 8 dereferenceable(32) ptr @_ZN2cv4util8any_castINS_7Scalar_IdEEEERT_RNS0_3anyE(ptr noundef nonnull align 8 dereferenceable(8) %4)
  ret ptr %5
}

; Function Attrs: mustprogress uwtable
define linkonce_odr hidden noundef nonnull align 8 dereferenceable(16) ptr @_ZNSt6vectorIN2cv4GArgESaIS1_EE2atEm(ptr noundef nonnull align 8 dereferenceable(24) %0, i64 noundef %1) #4 comdat align 2 {
  %3 = alloca ptr, align 8
  %4 = alloca i64, align 8
  store ptr %0, ptr %3, align 8, !tbaa !61
  store i64 %1, ptr %4, align 8, !tbaa !10
  %5 = load ptr, ptr %3, align 8
  %6 = load i64, ptr %4, align 8, !tbaa !10
  call void @_ZNKSt6vectorIN2cv4GArgESaIS1_EE14_M_range_checkEm(ptr noundef nonnull align 8 dereferenceable(24) %5, i64 noundef %6)
  %7 = load i64, ptr %4, align 8, !tbaa !10
  %8 = call noundef nonnull align 8 dereferenceable(16) ptr @_ZNSt6vectorIN2cv4GArgESaIS1_EEixEm(ptr noundef nonnull align 8 dereferenceable(24) %5, i64 noundef %7) #3
  ret ptr %8
}

; Function Attrs: mustprogress uwtable
define linkonce_odr hidden noundef nonnull align 8 dereferenceable(32) ptr @_ZN2cv11GOCLContext5inArgINS_7Scalar_IdEEEERKT_i(ptr noundef nonnull align 8 dereferenceable(80) %0, i32 noundef %1) #4 comdat align 2 {
  %3 = alloca ptr, align 8
  %4 = alloca i32, align 4
  store ptr %0, ptr %3, align 8, !tbaa !3
  store i32 %1, ptr %4, align 4, !tbaa !8
  %5 = load ptr, ptr %3, align 8
  %6 = getelementptr inbounds nuw %"class.cv::GOCLContext", ptr %5, i32 0, i32 0
  %7 = load i32, ptr %4, align 4, !tbaa !8
  %8 = sext i32 %7 to i64
  %9 = call noundef nonnull align 8 dereferenceable(16) ptr @_ZNSt6vectorIN2cv4GArgESaIS1_EE2atEm(ptr noundef nonnull align 8 dereferenceable(24) %6, i64 noundef %8)
  %10 = call noundef nonnull align 8 dereferenceable(32) ptr @_ZN2cv4GArg3getINS_7Scalar_IdEEEERT_v(ptr noundef nonnull align 8 dereferenceable(16) %9)
  ret ptr %10
}

; Function Attrs: mustprogress uwtable
define noundef nonnull align 8 dereferenceable(32) ptr @_ZN2cv11GOCLContext5inValEi(ptr noundef nonnull align 8 dereferenceable(80) %0, i32 noundef %1) #4 align 2 {
  %3 = alloca ptr, align 8
  %4 = alloca i32, align 4
  store ptr %0, ptr %3, align 8, !tbaa !3
  store i32 %1, ptr %4, align 4, !tbaa !8
  %5 = load ptr, ptr %3, align 8
  %6 = load i32, ptr %4, align 4, !tbaa !8
  %7 = call noundef nonnull align 8 dereferenceable(32) ptr @_ZN2cv11GOCLContext5inArgINS_7Scalar_IdEEEERKT_i(ptr noundef nonnull align 8 dereferenceable(80) %5, i32 noundef %6)
  ret ptr %7
}