; Function Attrs: mustprogress uwtable
define noundef nonnull align 8 dereferenceable(32) ptr @_ZN2cv11GOCLContext5inValEi(ptr noundef nonnull readonly align 8 captures(none) dereferenceable(80) %0, i32 noundef %1) local_unnamed_addr #3 align 2 personality ptr @__gxx_personality_v0 {
  %3 = alloca %"class.cv::util::bad_any_cast", align 8
  %4 = sext i32 %1 to i64
  %5 = getelementptr inbounds nuw i8, ptr %0, i64 8
  %6 = load ptr, ptr %5, align 8, !tbaa !3
  %7 = load ptr, ptr %0, align 8, !tbaa !9
  %8 = ptrtoint ptr %6 to i64
  %9 = ptrtoint ptr %7 to i64
  %10 = sub i64 %8, %9
  %11 = ashr exact i64 %10, 4
  %.not.i.i.i = icmp ugt i64 %11, %4
  br i1 %.not.i.i.i, label %_ZNSt6vectorIN2cv4GArgESaIS1_EE2atEm.exit.i, label %12

12:                                               ; preds = %2
  tail call void (ptr, ...) @_ZSt24__throw_out_of_range_fmtPKcz(ptr noundef nonnull @.str.3, i64 noundef %4, i64 noundef %11) #18
  unreachable

_ZNSt6vectorIN2cv4GArgESaIS1_EE2atEm.exit.i:      ; preds = %2
  %13 = getelementptr inbounds nuw %"class.cv::GArg", ptr %7, i64 %4, i32 2
  %14 = load ptr, ptr %13, align 8, !tbaa !10
  %15 = icmp eq ptr %14, null
  br i1 %15, label %_ZN2cv4util8any_castINS_7Scalar_IdEEEEPT_PNS0_3anyE.exit.thread.i.i.i, label %_ZN2cv4util8any_castINS_7Scalar_IdEEEEPT_PNS0_3anyE.exit.i.i.i

_ZN2cv4util8any_castINS_7Scalar_IdEEEEPT_PNS0_3anyE.exit.i.i.i: ; preds = %_ZNSt6vectorIN2cv4GArgESaIS1_EE2atEm.exit.i
  %16 = tail call ptr @__dynamic_cast(ptr nonnull %14, ptr nonnull @_ZTIN2cv4util3any6holderE, ptr nonnull @_ZTIN2cv4util3any11holder_implINS_7Scalar_IdEEEE, i64 0) #19
  %.not.i.i.i.i = icmp eq ptr %16, null
  br i1 %.not.i.i.i.i, label %_ZN2cv4util8any_castINS_7Scalar_IdEEEEPT_PNS0_3anyE.exit.thread.i.i.i, label %_ZN2cv11GOCLContext5inArgINS_7Scalar_IdEEEERKT_i.exit

_ZN2cv4util8any_castINS_7Scalar_IdEEEEPT_PNS0_3anyE.exit.thread.i.i.i: ; preds = %_ZN2cv4util8any_castINS_7Scalar_IdEEEEPT_PNS0_3anyE.exit.i.i.i, %_ZNSt6vectorIN2cv4GArgESaIS1_EE2atEm.exit.i
  call void @llvm.lifetime.start.p0(i64 8, ptr nonnull %3) #19
  store ptr getelementptr inbounds nuw inrange(-16, 24) (i8, ptr @_ZTVN2cv4util12bad_any_castE, i64 16), ptr %3, align 8, !tbaa !12
  invoke void @_ZN2cv4util11throw_errorINS0_12bad_any_castEEEvOT_(ptr noundef nonnull align 8 dereferenceable(8) %3) #18
          to label %17 unwind label %18

17:                                               ; preds = %_ZN2cv4util8any_castINS_7Scalar_IdEEEEPT_PNS0_3anyE.exit.thread.i.i.i
  unreachable

18:                                               ; preds = %_ZN2cv4util8any_castINS_7Scalar_IdEEEEPT_PNS0_3anyE.exit.thread.i.i.i
  %19 = landingpad { ptr, i32 }
          cleanup
  call void @_ZNSt8bad_castD2Ev(ptr noundef nonnull align 8 dereferenceable(8) %3) #19
  call void @llvm.lifetime.end.p0(i64 8, ptr nonnull %3) #19
  resume { ptr, i32 } %19

_ZN2cv11GOCLContext5inArgINS_7Scalar_IdEEEERKT_i.exit: ; preds = %_ZN2cv4util8any_castINS_7Scalar_IdEEEEPT_PNS0_3anyE.exit.i.i.i
  %20 = getelementptr inbounds nuw i8, ptr %16, i64 8
  ret ptr %20
}